target datalayout = "e-m:e-p270:32:32-p271:32:32-p272:64:64-i64:64-i128:128-f80:128-n8:16:32:64-S128"
target triple = "x86_64-pc-linux-gnu"

%struct._zend_array = type { %struct._zend_refcounted_h, %union.anon.4, i32, %union.anon.6, i32, i32, i32, i32, i64, ptr }
%struct._zend_refcounted_h = type { i32, %union.anon.3 }
%union.anon.3 = type { i32 }
%union.anon.4 = type { i32 }
%union.anon.6 = type { ptr }
%struct._zend_object_handlers = type { i32, ptr, ptr, ptr, ptr, ptr, ptr, ptr, ptr, ptr, ptr, ptr, ptr, ptr, ptr, ptr, ptr, ptr, ptr, ptr, ptr, ptr, ptr, ptr, ptr }
%struct._zend_class_entry = type { i8, ptr, %union.anon.8, i32, i32, i32, i32, ptr, ptr, ptr, %struct._zend_array, %struct._zend_array, %struct._zend_array, ptr, ptr, ptr, ptr, ptr, ptr, ptr, ptr, ptr, ptr, ptr, ptr, ptr, ptr, ptr, ptr, ptr, ptr, ptr, %union.anon.9, ptr, ptr, ptr, ptr, i32, i32, i32, i32, %union.anon.10, ptr, ptr, ptr, ptr, i32, ptr, ptr, %union.anon.11 }
%union.anon.8 = type { ptr }
%union.anon.9 = type { ptr }
%union.anon.10 = type { ptr }
%union.anon.11 = type { %struct.anon.12 }
%struct.anon.12 = type { ptr, i32, i32 }
%struct.anon.13 = type { ptr, ptr }
%struct._zend_string = type { %struct._zend_refcounted_h, i64, i64, [1 x i8] }

@zend_standard_class_def = external global ptr, align 8
@std_object_handlers = external constant %struct._zend_object_handlers, align 8
@zend_string_init_interned = external global ptr, align 8
@.str.50 = private unnamed_addr constant [9 x i8] c"stdClass\00", align 1
@.str.51 = private unnamed_addr constant [23 x i8] c"AllowDynamicProperties\00", align 1

; Function Attrs: alwaysinline nounwind uwtable
define internal i32 @zend_gc_delref(ptr noundef %0) #5 {
  %2 = alloca ptr, align 8
  store ptr %0, ptr %2, align 8, !tbaa !128
  %3 = load ptr, ptr %2, align 8, !tbaa !128
  %4 = getelementptr inbounds nuw %struct._zend_refcounted_h, ptr %3, i32 0, i32 0
  %5 = load i32, ptr %4, align 4, !tbaa !130
  %6 = icmp ugt i32 %5, 0
  call void @llvm.assume(i1 %6)
  br label %7

7:                                                ; preds = %1
  br label %8

8:                                                ; preds = %7
  %9 = load ptr, ptr %2, align 8, !tbaa !128
  %10 = getelementptr inbounds nuw %struct._zend_refcounted_h, ptr %9, i32 0, i32 0
  %11 = load i32, ptr %10, align 4, !tbaa !130
  %12 = add i32 %11, -1
  store i32 %12, ptr %10, align 4, !tbaa !130
  ret i32 %12
}

; Function Attrs: alwaysinline nounwind uwtable
define internal i32 @zval_gc_flags(i32 noundef %0) #5 {
  %2 = alloca i32, align 4
  store i32 %0, ptr %2, align 4, !tbaa !4
  %3 = load i32, ptr %2, align 4, !tbaa !4
  %4 = lshr i32 %3, 0
  %5 = and i32 %4, 1008
  ret i32 %5
}

; Function Attrs: alwaysinline nounwind uwtable
define internal void @zend_string_release(ptr noundef %0) #5 {
  %2 = alloca ptr, align 8
  store ptr %0, ptr %2, align 8, !tbaa !32
  %3 = load ptr, ptr %2, align 8, !tbaa !32
  %4 = getelementptr inbounds nuw %struct._zend_string, ptr %3, i32 0, i32 0
  %5 = getelementptr inbounds nuw %struct._zend_refcounted_h, ptr %4, i32 0, i32 1
  %6 = load i32, ptr %5, align 4, !tbaa !31
  %7 = call i32 @zval_gc_flags(i32 noundef %6)
  %8 = and i32 %7, 64
  %9 = icmp ne i32 %8, 0
  br i1 %9, label %29, label %10

10:                                               ; preds = %1
  %11 = load ptr, ptr %2, align 8, !tbaa !32
  %12 = getelementptr inbounds nuw %struct._zend_string, ptr %11, i32 0, i32 0
  %13 = call i32 @zend_gc_delref(ptr noundef %12)
  %14 = icmp eq i32 %13, 0
  br i1 %14, label %15, label %28

15:                                               ; preds = %10
  %16 = load ptr, ptr %2, align 8, !tbaa !32
  %17 = getelementptr inbounds nuw %struct._zend_string, ptr %16, i32 0, i32 0
  %18 = getelementptr inbounds nuw %struct._zend_refcounted_h, ptr %17, i32 0, i32 1
  %19 = load i32, ptr %18, align 4, !tbaa !31
  %20 = call i32 @zval_gc_flags(i32 noundef %19)
  %21 = and i32 %20, 128
  %22 = icmp ne i32 %21, 0
  br i1 %22, label %23, label %25

23:                                               ; preds = %15
  %24 = load ptr, ptr %2, align 8, !tbaa !32
  call void @free(ptr noundef %24) #14
  br label %27

25:                                               ; preds = %15
  %26 = load ptr, ptr %2, align 8, !tbaa !32
  call void @_efree(ptr noundef %26)
  br label %27

27:                                               ; preds = %25, %23
  br label %28

28:                                               ; preds = %27, %10
  br label %29

29:                                               ; preds = %28, %1
  ret void
}

; Function Attrs: alwaysinline nounwind uwtable
define internal ptr @zend_add_class_attribute(ptr noundef %0, ptr noundef %1, i32 noundef %2) #5 {
  %4 = alloca ptr, align 8
  %5 = alloca ptr, align 8
  %6 = alloca i32, align 4
  %7 = alloca i32, align 4
  store ptr %0, ptr %4, align 8, !tbaa !8
  store ptr %1, ptr %5, align 8, !tbaa !32
  store i32 %2, ptr %6, align 4, !tbaa !4
  call void @llvm.lifetime.start.p0(i64 4, ptr %7) #14
  %8 = load ptr, ptr %4, align 8, !tbaa !8
  %9 = getelementptr inbounds nuw %struct._zend_class_entry, ptr %8, i32 0, i32 0
  %10 = load i8, ptr %9, align 8, !tbaa !217
  %11 = sext i8 %10 to i32
  %12 = icmp ne i32 %11, 2
  %13 = select i1 %12, i32 1, i32 0
  store i32 %13, ptr %7, align 4, !tbaa !4
  %14 = load ptr, ptr %4, align 8, !tbaa !8
  %15 = getelementptr inbounds nuw %struct._zend_class_entry, ptr %14, i32 0, i32 45
  %16 = load ptr, ptr %5, align 8, !tbaa !32
  %17 = load i32, ptr %6, align 4, !tbaa !4
  %18 = load i32, ptr %7, align 4, !tbaa !4
  %19 = call ptr @zend_add_attribute(ptr noundef %15, ptr noundef %16, i32 noundef %17, i32 noundef %18, i32 noundef 0, i32 noundef 0)
  call void @llvm.lifetime.end.p0(i64 4, ptr %7) #14
  ret ptr %19
}

; Function Attrs: nounwind uwtable
define internal ptr @register_class_stdClass() #0 {
  %1 = alloca %struct._zend_class_entry, align 8
  %2 = alloca ptr, align 8
  %3 = alloca ptr, align 8
  call void @llvm.lifetime.start.p0(i64 520, ptr %1) #14
  call void @llvm.lifetime.start.p0(i64 8, ptr %2) #14
  call void @llvm.memset.p0.i64(ptr align 8 %1, i8 0, i64 520, i1 false)
  %4 = load ptr, ptr @zend_string_init_interned, align 8, !tbaa !11
  %5 = call ptr %4(ptr noundef @.str.50, i64 noundef 8, i1 noundef zeroext true)
  %6 = getelementptr inbounds nuw %struct._zend_class_entry, ptr %1, i32 0, i32 1
  store ptr %5, ptr %6, align 8, !tbaa !12
  %7 = getelementptr inbounds nuw %struct._zend_class_entry, ptr %1, i32 0, i32 29
  store ptr @std_object_handlers, ptr %7, align 8, !tbaa !30
  %8 = getelementptr inbounds nuw %struct._zend_class_entry, ptr %1, i32 0, i32 49
  %9 = getelementptr inbounds nuw %struct.anon.13, ptr %8, i32 0, i32 0
  store ptr null, ptr %9, align 8, !tbaa !31
  %10 = call ptr @zend_register_internal_class_with_flags(ptr noundef %1, ptr noundef null, i32 noundef 32768)
  store ptr %10, ptr %2, align 8, !tbaa !8
  call void @llvm.lifetime.start.p0(i64 8, ptr %3) #14
  %11 = load ptr, ptr @zend_string_init_interned, align 8, !tbaa !11
  %12 = call ptr %11(ptr noundef @.str.51, i64 noundef 22, i1 noundef zeroext true)
  store ptr %12, ptr %3, align 8, !tbaa !32
  %13 = load ptr, ptr %2, align 8, !tbaa !8
  %14 = load ptr, ptr %3, align 8, !tbaa !32
  %15 = call ptr @zend_add_class_attribute(ptr noundef %13, ptr noundef %14, i32 noundef 0)
  %16 = load ptr, ptr %3, align 8, !tbaa !32
  call void @zend_string_release(ptr noundef %16)
  %17 = load ptr, ptr %2, align 8, !tbaa !8
  call void @llvm.lifetime.end.p0(i64 8, ptr %3) #14
  call void @llvm.lifetime.end.p0(i64 8, ptr %2) #14
  call void @llvm.lifetime.end.p0(i64 520, ptr %1) #14
  ret ptr %17
}

; Function Attrs: nounwind uwtable
define hidden i32 @zm_startup_core(i32 noundef %0, i32 noundef %1) #0 {
  %3 = alloca i32, align 4
  %4 = alloca i32, align 4
  store i32 %0, ptr %3, align 4, !tbaa !4
  store i32 %1, ptr %4, align 4, !tbaa !4
  call void @zend_register_default_classes()
  %5 = call ptr @register_class_stdClass()
  store ptr %5, ptr @zend_standard_class_def, align 8, !tbaa !8
  ret i32 0
}