; Function Attrs: nounwind uwtable
define hidden noundef i32 @zm_startup_core(i32 %0, i32 %1) #0 {
  %3 = alloca %struct._zend_class_entry, align 8
  tail call void @zend_register_default_classes() #14
  call void @llvm.lifetime.start.p0(i64 520, ptr nonnull %3) #14
  call void @llvm.memset.p0.i64(ptr noundef nonnull align 8 dereferenceable(520) %3, i8 0, i64 520, i1 false)
  %4 = load ptr, ptr @zend_string_init_interned, align 8, !tbaa !4
  %5 = tail call ptr %4(ptr noundef nonnull @.str.50, i64 noundef 8, i1 noundef zeroext true) #14
  %6 = getelementptr inbounds nuw i8, ptr %3, i64 8
  store ptr %5, ptr %6, align 8, !tbaa !8
  %7 = getelementptr inbounds nuw i8, ptr %3, i64 360
  store ptr @std_object_handlers, ptr %7, align 8, !tbaa !27
  %8 = getelementptr inbounds nuw i8, ptr %3, i64 504
  store ptr null, ptr %8, align 8, !tbaa !28
  %9 = call ptr @zend_register_internal_class_with_flags(ptr noundef nonnull %3, ptr noundef null, i32 noundef 32768) #14
  %10 = load ptr, ptr @zend_string_init_interned, align 8, !tbaa !4
  %11 = call ptr %10(ptr noundef nonnull @.str.51, i64 noundef 22, i1 noundef zeroext true) #14
  %12 = load i8, ptr %9, align 8, !tbaa !29
  %.not.i4.i = icmp ne i8 %12, 2
  %13 = zext i1 %.not.i4.i to i32
  %14 = getelementptr inbounds nuw i8, ptr %9, i64 472
  %15 = call ptr @zend_add_attribute(ptr noundef nonnull %14, ptr noundef %11, i32 noundef 0, i32 noundef %13, i32 noundef 0, i32 noundef 0) #14
  %16 = getelementptr inbounds nuw i8, ptr %11, i64 4
  %17 = load i32, ptr %16, align 4, !tbaa !28
  %18 = and i32 %17, 64
  %.not.i.i = icmp eq i32 %18, 0
  br i1 %.not.i.i, label %19, label %register_class_stdClass.exit

19:                                               ; preds = %2
  %20 = load i32, ptr %11, align 4, !tbaa !30
  %21 = icmp ne i32 %20, 0
  call void @llvm.assume(i1 %21)
  %22 = add i32 %20, -1
  store i32 %22, ptr %11, align 4, !tbaa !30
  %23 = icmp eq i32 %22, 0
  br i1 %23, label %24, label %register_class_stdClass.exit

24:                                               ; preds = %19
  %25 = and i32 %17, 128
  %.not5.i.i = icmp eq i32 %25, 0
  br i1 %.not5.i.i, label %27, label %26

26:                                               ; preds = %24
  call void @free(ptr noundef nonnull %11) #14
  br label %register_class_stdClass.exit

27:                                               ; preds = %24
  call void @_efree(ptr noundef nonnull %11) #14
  br label %register_class_stdClass.exit

register_class_stdClass.exit:                     ; preds = %2, %19, %26, %27
  call void @llvm.lifetime.end.p0(i64 520, ptr nonnull %3) #14
  store ptr %9, ptr @zend_standard_class_def, align 8, !tbaa !31
  ret i32 0
}